target datalayout = "e-m:e-p270:32:32-p271:32:32-p272:64:64-i64:64-i128:128-f80:128-n8:16:32:64-S128"
target triple = "x86_64-pc-linux-gnu"

%"class.std::filesystem::__cxx11::path" = type { %"class.std::__cxx11::basic_string", %"struct.std::filesystem::__cxx11::path::_List" }
%"class.std::__cxx11::basic_string" = type { %"struct.std::__cxx11::basic_string<char>::_Alloc_hider", i64, %union.anon }
%"struct.std::__cxx11::basic_string<char>::_Alloc_hider" = type { ptr }
%union.anon = type { i64, [8 x i8] }
%"struct.std::filesystem::__cxx11::path::_List" = type { %"class.std::unique_ptr" }
%"class.std::unique_ptr" = type { %"struct.std::__uniq_ptr_data" }
%"struct.std::__uniq_ptr_data" = type { %"class.std::__uniq_ptr_impl" }
%"class.std::__uniq_ptr_impl" = type { %"class.std::tuple" }
%"class.std::tuple" = type { %"struct.std::_Tuple_impl" }
%"struct.std::_Tuple_impl" = type { %"struct.std::_Head_base.1" }
%"struct.std::_Head_base.1" = type { ptr }
%struct.gmx_sparsematrix = type { i8, i32, ptr, ptr, ptr }
%struct.gmx_sparsematrix_entry = type { i32, float }

@.str = private unnamed_addr constant [122 x i8] c"generated/home/dtcxzyw/WorkSpace/Projects/compilers/llvm-opt-benchmark/bench/gromacs/gromacs/src/gromacs/fileio/mtxio.cpp\00", align 1
@.str.1 = private unnamed_addr constant [61 x i8] c"Both full AND sparse matrix specified to gmx_mtxio_write().\0A\00", align 1
@.str.2 = private unnamed_addr constant [2 x i8] c"w\00", align 1
@.str.3 = private unnamed_addr constant [2 x i8] c"i\00", align 1
@.str.4 = private unnamed_addr constant [14 x i8] c"gmx_version()\00", align 1
@.str.5 = private unnamed_addr constant [5 x i8] c"prec\00", align 1
@.str.6 = private unnamed_addr constant [5 x i8] c"nrow\00", align 1
@.str.7 = private unnamed_addr constant [5 x i8] c"ncol\00", align 1
@.str.8 = private unnamed_addr constant [12 x i8] c"full_matrix\00", align 1
@.str.9 = private unnamed_addr constant [36 x i8] c"sparse_matrix->compressed_symmetric\00", align 1
@.str.10 = private unnamed_addr constant [20 x i8] c"sparse_matrix->nrow\00", align 1
@.str.11 = private unnamed_addr constant [42 x i8] c"Internal inconsistency in sparse matrix.\0A\00", align 1
@.str.12 = private unnamed_addr constant [21 x i8] c"sparse_matrix->ndata\00", align 1
@.str.13 = private unnamed_addr constant [30 x i8] c"sparse_matrix->data[i][j].col\00", align 1
@.str.14 = private unnamed_addr constant [32 x i8] c"sparse_matrix->data[i][j].value\00", align 1

; Function Attrs: mustprogress uwtable
define void @_Z15gmx_mtxio_writeRKNSt10filesystem7__cxx114pathEiiPfP16gmx_sparsematrix(ptr noundef nonnull align 8 dereferenceable(40) %0, i32 noundef %1, i32 noundef %2, ptr noundef %3, ptr noundef %4) #0 personality ptr @__gxx_personality_v0 {
  %6 = alloca ptr, align 8
  %7 = alloca i32, align 4
  %8 = alloca i32, align 4
  %9 = alloca ptr, align 8
  %10 = alloca ptr, align 8
  %11 = alloca ptr, align 8
  %12 = alloca i32, align 4
  %13 = alloca i32, align 4
  %14 = alloca i32, align 4
  %15 = alloca i64, align 8
  %16 = alloca %"class.std::filesystem::__cxx11::path", align 8
  %17 = alloca ptr, align 8
  %18 = alloca i32, align 4
  %19 = alloca %"class.std::filesystem::__cxx11::path", align 8
  store ptr %0, ptr %6, align 8
  store i32 %1, ptr %7, align 4
  store i32 %2, ptr %8, align 4
  store ptr %3, ptr %9, align 8
  store ptr %4, ptr %10, align 8
  %20 = load ptr, ptr %9, align 8
  %21 = icmp ne ptr %20, null
  br i1 %21, label %22, label %31

22:                                               ; preds = %5
  %23 = load ptr, ptr %10, align 8
  %24 = icmp ne ptr %23, null
  br i1 %24, label %25, label %31

25:                                               ; preds = %22
  call void @_ZNSt10filesystem7__cxx114pathC2IA122_cS1_EERKT_NS1_6formatE(ptr noundef nonnull align 8 dereferenceable(40) %16, ptr noundef nonnull align 1 dereferenceable(122) @.str, i8 noundef zeroext 2)
  invoke void (i32, ptr, i32, ptr, ...) @_Z9gmx_fataliRKNSt10filesystem7__cxx114pathEiPKcz(i32 noundef 0, ptr noundef nonnull align 8 dereferenceable(40) %16, i32 noundef 90, ptr noundef @.str.1) #7
          to label %26 unwind label %27

26:                                               ; preds = %25
  unreachable

27:                                               ; preds = %25
  %28 = landingpad { ptr, i32 }
          cleanup
  %29 = extractvalue { ptr, i32 } %28, 0
  store ptr %29, ptr %17, align 8
  %30 = extractvalue { ptr, i32 } %28, 1
  store i32 %30, ptr %18, align 4
  call void @_ZNSt10filesystem7__cxx114pathD2Ev(ptr noundef nonnull align 8 dereferenceable(40) %16) #8
  br label %145

31:                                               ; preds = %22, %5
  %32 = load ptr, ptr %6, align 8
  %33 = call noundef ptr @_Z12gmx_fio_openRKNSt10filesystem7__cxx114pathEPKc(ptr noundef nonnull align 8 dereferenceable(40) %32, ptr noundef @.str.2)
  store ptr %33, ptr %11, align 8
  store i32 885952466, ptr %12, align 4
  %34 = load ptr, ptr %11, align 8
  %35 = call noundef zeroext i1 @_Z15gmx_fio_doe_intP8t_fileioPiPKcS3_i(ptr noundef %34, ptr noundef %12, ptr noundef @.str.3, ptr noundef @.str, i32 noundef 97)
  %36 = load ptr, ptr %11, align 8
  %37 = call noundef ptr @_Z11gmx_versionv()
  %38 = call noundef zeroext i1 @_Z21gmx_fio_writee_stringP8t_fileioPKcS2_S2_i(ptr noundef %36, ptr noundef %37, ptr noundef @.str.4, ptr noundef @.str, i32 noundef 100)
  store i32 0, ptr %14, align 4
  %39 = load ptr, ptr %11, align 8
  %40 = call noundef zeroext i1 @_Z15gmx_fio_doe_intP8t_fileioPiPKcS3_i(ptr noundef %39, ptr noundef %14, ptr noundef @.str.5, ptr noundef @.str, i32 noundef 111)
  %41 = load ptr, ptr %11, align 8
  %42 = call noundef zeroext i1 @_Z15gmx_fio_doe_intP8t_fileioPiPKcS3_i(ptr noundef %41, ptr noundef %7, ptr noundef @.str.6, ptr noundef @.str, i32 noundef 113)
  %43 = load ptr, ptr %11, align 8
  %44 = call noundef zeroext i1 @_Z15gmx_fio_doe_intP8t_fileioPiPKcS3_i(ptr noundef %43, ptr noundef %8, ptr noundef @.str.7, ptr noundef @.str, i32 noundef 114)
  %45 = load ptr, ptr %9, align 8
  %46 = icmp ne ptr %45, null
  br i1 %46, label %47, label %59

47:                                               ; preds = %31
  store i32 0, ptr %12, align 4
  %48 = load ptr, ptr %11, align 8
  %49 = call noundef zeroext i1 @_Z15gmx_fio_doe_intP8t_fileioPiPKcS3_i(ptr noundef %48, ptr noundef %12, ptr noundef @.str.3, ptr noundef @.str, i32 noundef 120)
  %50 = load i32, ptr %7, align 4
  %51 = load i32, ptr %8, align 4
  %52 = mul nsw i32 %50, %51
  %53 = sext i32 %52 to i64
  store i64 %53, ptr %15, align 8
  %54 = load ptr, ptr %11, align 8
  %55 = load ptr, ptr %9, align 8
  %56 = load i64, ptr %15, align 8
  %57 = trunc i64 %56 to i32
  %58 = call noundef zeroext i1 @_Z17gmx_fio_ndoe_realP8t_fileioPfiPKcS3_i(ptr noundef %54, ptr noundef %55, i32 noundef %57, ptr noundef @.str.8, ptr noundef @.str, i32 noundef 122)
  br label %142

59:                                               ; preds = %31
  store i32 1, ptr %12, align 4
  %60 = load ptr, ptr %11, align 8
  %61 = call noundef zeroext i1 @_Z15gmx_fio_doe_intP8t_fileioPiPKcS3_i(ptr noundef %60, ptr noundef %12, ptr noundef @.str.3, ptr noundef @.str, i32 noundef 128)
  %62 = load ptr, ptr %11, align 8
  %63 = load ptr, ptr %10, align 8
  %64 = getelementptr inbounds %struct.gmx_sparsematrix, ptr %63, i32 0, i32 0
  %65 = call noundef zeroext i1 @_Z20gmx_fio_doe_gmx_boolP8t_fileioPbPKcS3_i(ptr noundef %62, ptr noundef %64, ptr noundef @.str.9, ptr noundef @.str, i32 noundef 130)
  %66 = load ptr, ptr %11, align 8
  %67 = load ptr, ptr %10, align 8
  %68 = getelementptr inbounds %struct.gmx_sparsematrix, ptr %67, i32 0, i32 1
  %69 = call noundef zeroext i1 @_Z15gmx_fio_doe_intP8t_fileioPiPKcS3_i(ptr noundef %66, ptr noundef %68, ptr noundef @.str.10, ptr noundef @.str, i32 noundef 131)
  %70 = load ptr, ptr %10, align 8
  %71 = getelementptr inbounds %struct.gmx_sparsematrix, ptr %70, i32 0, i32 1
  %72 = load i32, ptr %71, align 4
  %73 = load i32, ptr %7, align 4
  %74 = icmp ne i32 %72, %73
  br i1 %74, label %75, label %81

75:                                               ; preds = %59
  call void @_ZNSt10filesystem7__cxx114pathC2IA122_cS1_EERKT_NS1_6formatE(ptr noundef nonnull align 8 dereferenceable(40) %19, ptr noundef nonnull align 1 dereferenceable(122) @.str, i8 noundef zeroext 2)
  invoke void (i32, ptr, i32, ptr, ...) @_Z9gmx_fataliRKNSt10filesystem7__cxx114pathEiPKcz(i32 noundef 0, ptr noundef nonnull align 8 dereferenceable(40) %19, i32 noundef 134, ptr noundef @.str.11) #7
          to label %76 unwind label %77

76:                                               ; preds = %75
  unreachable

77:                                               ; preds = %75
  %78 = landingpad { ptr, i32 }
          cleanup
  %79 = extractvalue { ptr, i32 } %78, 0
  store ptr %79, ptr %17, align 8
  %80 = extractvalue { ptr, i32 } %78, 1
  store i32 %80, ptr %18, align 4
  call void @_ZNSt10filesystem7__cxx114pathD2Ev(ptr noundef nonnull align 8 dereferenceable(40) %19) #8
  br label %145

81:                                               ; preds = %59
  %82 = load ptr, ptr %11, align 8
  %83 = load ptr, ptr %10, align 8
  %84 = getelementptr inbounds %struct.gmx_sparsematrix, ptr %83, i32 0, i32 2
  %85 = load ptr, ptr %84, align 8
  %86 = load ptr, ptr %10, align 8
  %87 = getelementptr inbounds %struct.gmx_sparsematrix, ptr %86, i32 0, i32 1
  %88 = load i32, ptr %87, align 4
  %89 = call noundef zeroext i1 @_Z16gmx_fio_ndoe_intP8t_fileioPiiPKcS3_i(ptr noundef %82, ptr noundef %85, i32 noundef %88, ptr noundef @.str.12, ptr noundef @.str, i32 noundef 136)
  store i32 0, ptr %12, align 4
  br label %90

90:                                               ; preds = %138, %81
  %91 = load i32, ptr %12, align 4
  %92 = load ptr, ptr %10, align 8
  %93 = getelementptr inbounds %struct.gmx_sparsematrix, ptr %92, i32 0, i32 1
  %94 = load i32, ptr %93, align 4
  %95 = icmp slt i32 %91, %94
  br i1 %95, label %96, label %141

96:                                               ; preds = %90
  store i32 0, ptr %13, align 4
  br label %97

97:                                               ; preds = %134, %96
  %98 = load i32, ptr %13, align 4
  %99 = load ptr, ptr %10, align 8
  %100 = getelementptr inbounds %struct.gmx_sparsematrix, ptr %99, i32 0, i32 2
  %101 = load ptr, ptr %100, align 8
  %102 = load i32, ptr %12, align 4
  %103 = sext i32 %102 to i64
  %104 = getelementptr inbounds i32, ptr %101, i64 %103
  %105 = load i32, ptr %104, align 4
  %106 = icmp slt i32 %98, %105
  br i1 %106, label %107, label %137

107:                                              ; preds = %97
  %108 = load ptr, ptr %11, align 8
  %109 = load ptr, ptr %10, align 8
  %110 = getelementptr inbounds %struct.gmx_sparsematrix, ptr %109, i32 0, i32 4
  %111 = load ptr, ptr %110, align 8
  %112 = load i32, ptr %12, align 4
  %113 = sext i32 %112 to i64
  %114 = getelementptr inbounds ptr, ptr %111, i64 %113
  %115 = load ptr, ptr %114, align 8
  %116 = load i32, ptr %13, align 4
  %117 = sext i32 %116 to i64
  %118 = getelementptr inbounds %struct.gmx_sparsematrix_entry, ptr %115, i64 %117
  %119 = getelementptr inbounds %struct.gmx_sparsematrix_entry, ptr %118, i32 0, i32 0
  %120 = call noundef zeroext i1 @_Z15gmx_fio_doe_intP8t_fileioPiPKcS3_i(ptr noundef %108, ptr noundef %119, ptr noundef @.str.13, ptr noundef @.str, i32 noundef 141)
  %121 = load ptr, ptr %11, align 8
  %122 = load ptr, ptr %10, align 8
  %123 = getelementptr inbounds %struct.gmx_sparsematrix, ptr %122, i32 0, i32 4
  %124 = load ptr, ptr %123, align 8
  %125 = load i32, ptr %12, align 4
  %126 = sext i32 %125 to i64
  %127 = getelementptr inbounds ptr, ptr %124, i64 %126
  %128 = load ptr, ptr %127, align 8
  %129 = load i32, ptr %13, align 4
  %130 = sext i32 %129 to i64
  %131 = getelementptr inbounds %struct.gmx_sparsematrix_entry, ptr %128, i64 %130
  %132 = getelementptr inbounds %struct.gmx_sparsematrix_entry, ptr %131, i32 0, i32 1
  %133 = call noundef zeroext i1 @_Z16gmx_fio_doe_realP8t_fileioPfPKcS3_i(ptr noundef %121, ptr noundef %132, ptr noundef @.str.14, ptr noundef @.str, i32 noundef 142)
  br label %134

134:                                              ; preds = %107
  %135 = load i32, ptr %13, align 4
  %136 = add nsw i32 %135, 1
  store i32 %136, ptr %13, align 4
  br label %97, !llvm.loop !5

137:                                              ; preds = %97
  br label %138

138:                                              ; preds = %137
  %139 = load i32, ptr %12, align 4
  %140 = add nsw i32 %139, 1
  store i32 %140, ptr %12, align 4
  br label %90, !llvm.loop !7

141:                                              ; preds = %90
  br label %142

142:                                              ; preds = %141, %47
  %143 = load ptr, ptr %11, align 8
  %144 = call noundef i32 @_Z13gmx_fio_closeP8t_fileio(ptr noundef %143)
  ret void

145:                                              ; preds = %77, %27
  %146 = load ptr, ptr %17, align 8
  %147 = load i32, ptr %18, align 4
  %148 = insertvalue { ptr, i32 } poison, ptr %146, 0
  %149 = insertvalue { ptr, i32 } %148, i32 %147, 1
  resume { ptr, i32 } %149
}