; Function Attrs: mustprogress uwtable
define void @_Z15gmx_mtxio_writeRKNSt10filesystem7__cxx114pathEiiPfP16gmx_sparsematrix(ptr noundef nonnull align 8 dereferenceable(40) %0, i32 noundef %1, i32 noundef %2, ptr noundef %3, ptr noundef %4) local_unnamed_addr #0 personality ptr @__gxx_personality_v0 {
  %6 = alloca i32, align 4
  %7 = alloca i32, align 4
  %8 = alloca i32, align 4
  %9 = alloca i32, align 4
  %10 = alloca %"class.std::filesystem::__cxx11::path", align 8
  %11 = alloca %"class.std::filesystem::__cxx11::path", align 8
  store i32 %1, ptr %6, align 4
  store i32 %2, ptr %7, align 4
  %12 = icmp ne ptr %3, null
  %13 = icmp ne ptr %4, null
  %or.cond = and i1 %12, %13
  br i1 %or.cond, label %14, label %18

14:                                               ; preds = %5
  call void @_ZNSt10filesystem7__cxx114pathC2IA122_cS1_EERKT_NS1_6formatE(ptr noundef nonnull align 8 dereferenceable(40) %10, ptr noundef nonnull align 1 dereferenceable(122) @.str, i8 noundef zeroext 2)
  invoke void (i32, ptr, i32, ptr, ...) @_Z9gmx_fataliRKNSt10filesystem7__cxx114pathEiPKcz(i32 noundef 0, ptr noundef nonnull align 8 dereferenceable(40) %10, i32 noundef 90, ptr noundef nonnull @.str.1) #8
          to label %15 unwind label %16

15:                                               ; preds = %14
  unreachable

16:                                               ; preds = %14
  %17 = landingpad { ptr, i32 }
          cleanup
  br label %82

18:                                               ; preds = %5
  %19 = tail call noundef ptr @_Z12gmx_fio_openRKNSt10filesystem7__cxx114pathEPKc(ptr noundef nonnull align 8 dereferenceable(40) %0, ptr noundef nonnull @.str.2)
  store i32 885952466, ptr %8, align 4
  %20 = call noundef zeroext i1 @_Z15gmx_fio_doe_intP8t_fileioPiPKcS3_i(ptr noundef %19, ptr noundef nonnull %8, ptr noundef nonnull @.str.3, ptr noundef nonnull @.str, i32 noundef 97)
  %21 = call noundef ptr @_Z11gmx_versionv()
  %22 = call noundef zeroext i1 @_Z21gmx_fio_writee_stringP8t_fileioPKcS2_S2_i(ptr noundef %19, ptr noundef %21, ptr noundef nonnull @.str.4, ptr noundef nonnull @.str, i32 noundef 100)
  store i32 0, ptr %9, align 4
  %23 = call noundef zeroext i1 @_Z15gmx_fio_doe_intP8t_fileioPiPKcS3_i(ptr noundef %19, ptr noundef nonnull %9, ptr noundef nonnull @.str.5, ptr noundef nonnull @.str, i32 noundef 111)
  %24 = call noundef zeroext i1 @_Z15gmx_fio_doe_intP8t_fileioPiPKcS3_i(ptr noundef %19, ptr noundef nonnull %6, ptr noundef nonnull @.str.6, ptr noundef nonnull @.str, i32 noundef 113)
  %25 = call noundef zeroext i1 @_Z15gmx_fio_doe_intP8t_fileioPiPKcS3_i(ptr noundef %19, ptr noundef nonnull %7, ptr noundef nonnull @.str.7, ptr noundef nonnull @.str, i32 noundef 114)
  br i1 %12, label %26, label %32

26:                                               ; preds = %18
  store i32 0, ptr %8, align 4
  %27 = call noundef zeroext i1 @_Z15gmx_fio_doe_intP8t_fileioPiPKcS3_i(ptr noundef %19, ptr noundef nonnull %8, ptr noundef nonnull @.str.3, ptr noundef nonnull @.str, i32 noundef 120)
  %28 = load i32, ptr %6, align 4
  %29 = load i32, ptr %7, align 4
  %30 = mul nsw i32 %29, %28
  %31 = call noundef zeroext i1 @_Z17gmx_fio_ndoe_realP8t_fileioPfiPKcS3_i(ptr noundef %19, ptr noundef nonnull %3, i32 noundef %30, ptr noundef nonnull @.str.8, ptr noundef nonnull @.str, i32 noundef 122)
  br label %.loopexit

32:                                               ; preds = %18
  store i32 1, ptr %8, align 4
  %33 = call noundef zeroext i1 @_Z15gmx_fio_doe_intP8t_fileioPiPKcS3_i(ptr noundef %19, ptr noundef nonnull %8, ptr noundef nonnull @.str.3, ptr noundef nonnull @.str, i32 noundef 128)
  %34 = call noundef zeroext i1 @_Z20gmx_fio_doe_gmx_boolP8t_fileioPbPKcS3_i(ptr noundef %19, ptr noundef %4, ptr noundef nonnull @.str.9, ptr noundef nonnull @.str, i32 noundef 130)
  %35 = getelementptr inbounds i8, ptr %4, i64 4
  %36 = call noundef zeroext i1 @_Z15gmx_fio_doe_intP8t_fileioPiPKcS3_i(ptr noundef %19, ptr noundef nonnull %35, ptr noundef nonnull @.str.10, ptr noundef nonnull @.str, i32 noundef 131)
  %37 = load i32, ptr %35, align 4
  %38 = load i32, ptr %6, align 4
  %.not = icmp eq i32 %37, %38
  br i1 %.not, label %43, label %39

39:                                               ; preds = %32
  call void @_ZNSt10filesystem7__cxx114pathC2IA122_cS1_EERKT_NS1_6formatE(ptr noundef nonnull align 8 dereferenceable(40) %11, ptr noundef nonnull align 1 dereferenceable(122) @.str, i8 noundef zeroext 2)
  invoke void (i32, ptr, i32, ptr, ...) @_Z9gmx_fataliRKNSt10filesystem7__cxx114pathEiPKcz(i32 noundef 0, ptr noundef nonnull align 8 dereferenceable(40) %11, i32 noundef 134, ptr noundef nonnull @.str.11) #8
          to label %40 unwind label %41

40:                                               ; preds = %39
  unreachable

41:                                               ; preds = %39
  %42 = landingpad { ptr, i32 }
          cleanup
  br label %82

43:                                               ; preds = %32
  %44 = getelementptr inbounds i8, ptr %4, i64 8
  %45 = load ptr, ptr %44, align 8
  %46 = call noundef zeroext i1 @_Z16gmx_fio_ndoe_intP8t_fileioPiiPKcS3_i(ptr noundef %19, ptr noundef %45, i32 noundef %37, ptr noundef nonnull @.str.12, ptr noundef nonnull @.str, i32 noundef 136)
  store i32 0, ptr %8, align 4
  %47 = load i32, ptr %35, align 4
  %48 = icmp sgt i32 %47, 0
  br i1 %48, label %.preheader.lr.ph, label %.loopexit

.preheader.lr.ph:                                 ; preds = %43
  %49 = getelementptr inbounds i8, ptr %4, i64 24
  %.pre = load ptr, ptr %44, align 8
  br label %.preheader

.preheader:                                       ; preds = %.preheader.lr.ph, %._crit_edge
  %50 = phi i32 [ %47, %.preheader.lr.ph ], [ %77, %._crit_edge ]
  %51 = phi i32 [ 0, %.preheader.lr.ph ], [ %79, %._crit_edge ]
  %52 = phi ptr [ %.pre, %.preheader.lr.ph ], [ %78, %._crit_edge ]
  %53 = sext i32 %51 to i64
  %54 = getelementptr inbounds i32, ptr %52, i64 %53
  %55 = load i32, ptr %54, align 4
  %56 = icmp sgt i32 %55, 0
  br i1 %56, label %.lr.ph, label %._crit_edge

.lr.ph:                                           ; preds = %.preheader, %.lr.ph
  %indvars.iv = phi i64 [ %indvars.iv.next, %.lr.ph ], [ 0, %.preheader ]
  %57 = phi i64 [ %72, %.lr.ph ], [ %53, %.preheader ]
  %58 = load ptr, ptr %49, align 8
  %59 = getelementptr inbounds ptr, ptr %58, i64 %57
  %60 = load ptr, ptr %59, align 8
  %61 = getelementptr inbounds %struct.gmx_sparsematrix_entry, ptr %60, i64 %indvars.iv
  %62 = call noundef zeroext i1 @_Z15gmx_fio_doe_intP8t_fileioPiPKcS3_i(ptr noundef %19, ptr noundef %61, ptr noundef nonnull @.str.13, ptr noundef nonnull @.str, i32 noundef 141)
  %63 = load ptr, ptr %49, align 8
  %64 = load i32, ptr %8, align 4
  %65 = sext i32 %64 to i64
  %66 = getelementptr inbounds ptr, ptr %63, i64 %65
  %67 = load ptr, ptr %66, align 8
  %68 = getelementptr inbounds %struct.gmx_sparsematrix_entry, ptr %67, i64 %indvars.iv, i32 1
  %69 = call noundef zeroext i1 @_Z16gmx_fio_doe_realP8t_fileioPfPKcS3_i(ptr noundef %19, ptr noundef nonnull %68, ptr noundef nonnull @.str.14, ptr noundef nonnull @.str, i32 noundef 142)
  %indvars.iv.next = add nuw nsw i64 %indvars.iv, 1
  %70 = load ptr, ptr %44, align 8
  %71 = load i32, ptr %8, align 4
  %72 = sext i32 %71 to i64
  %73 = getelementptr inbounds i32, ptr %70, i64 %72
  %74 = load i32, ptr %73, align 4
  %75 = sext i32 %74 to i64
  %76 = icmp slt i64 %indvars.iv.next, %75
  br i1 %76, label %.lr.ph, label %._crit_edge.loopexit, !llvm.loop !5

._crit_edge.loopexit:                             ; preds = %.lr.ph
  %.pre43 = load i32, ptr %35, align 4
  br label %._crit_edge

._crit_edge:                                      ; preds = %._crit_edge.loopexit, %.preheader
  %77 = phi i32 [ %50, %.preheader ], [ %.pre43, %._crit_edge.loopexit ]
  %78 = phi ptr [ %52, %.preheader ], [ %70, %._crit_edge.loopexit ]
  %.lcssa = phi i32 [ %51, %.preheader ], [ %71, %._crit_edge.loopexit ]
  %79 = add nsw i32 %.lcssa, 1
  store i32 %79, ptr %8, align 4
  %80 = icmp slt i32 %79, %77
  br i1 %80, label %.preheader, label %.loopexit, !llvm.loop !7

.loopexit:                                        ; preds = %._crit_edge, %43, %26
  %81 = call noundef i32 @_Z13gmx_fio_closeP8t_fileio(ptr noundef %19)
  ret void

82:                                               ; preds = %41, %16
  %.sink = phi ptr [ %11, %41 ], [ %10, %16 ]
  %.pn = phi { ptr, i32 } [ %42, %41 ], [ %17, %16 ]
  call void @_ZNSt10filesystem7__cxx114pathD2Ev(ptr noundef nonnull align 8 dereferenceable(40) %.sink) #9
  resume { ptr, i32 } %.pn
}